target datalayout = "e-m:e-p270:32:32-p271:32:32-p272:64:64-i64:64-i128:128-f80:128-n8:16:32:64-S128"
target triple = "x86_64-unknown-linux-gnu"

%"class.icu_75::OlsonTimeZone" = type { %"class.icu_75::BasicTimeZone", i16, i16, i16, ptr, ptr, ptr, i16, ptr, ptr, ptr, double, i32, ptr, ptr, ptr, i16, ptr, ptr, i16, ptr, %"struct.icu_75::UInitOnce" }
%"class.icu_75::BasicTimeZone" = type { %"class.icu_75::TimeZone" }
%"class.icu_75::TimeZone" = type { %"class.icu_75::UObject", %"class.icu_75::UnicodeString" }
%"class.icu_75::UObject" = type { ptr }
%"class.icu_75::UnicodeString" = type { %"class.icu_75::Replaceable", %"union.icu_75::UnicodeString::StackBufferOrFields" }
%"class.icu_75::Replaceable" = type { %"class.icu_75::UObject" }
%"union.icu_75::UnicodeString::StackBufferOrFields" = type { %struct.anon.0, [32 x i8] }
%struct.anon.0 = type { i16, i32, i32, ptr }
%"struct.icu_75::UInitOnce" = type { %"struct.std::atomic", i32 }
%"struct.std::atomic" = type { %"struct.std::__atomic_base" }
%"struct.std::__atomic_base" = type { i32 }

; Function Attrs: mustprogress nounwind uwtable
define internal noundef signext i8 @_ZL9U_FAILURE10UErrorCode(i32 noundef %code) #0 {
entry:
  %code.addr = alloca i32, align 4
  store i32 %code, ptr %code.addr, align 4
  %0 = load i32, ptr %code.addr, align 4
  %cmp = icmp sgt i32 %0, 0
  %conv = zext i1 %cmp to i8
  ret i8 %conv
}

; Function Attrs: mustprogress uwtable
define noundef i32 @_ZNK6icu_7513OlsonTimeZone9getOffsetEhiiihiiR10UErrorCode(ptr noundef nonnull align 8 dereferenceable(224) %this, i8 noundef zeroext %era, i32 noundef %year, i32 noundef %month, i32 noundef %dom, i8 noundef zeroext %dow, i32 noundef %millis, i32 noundef %monthLength, ptr noundef nonnull align 4 dereferenceable(4) %ec) unnamed_addr #1 align 2 {
entry:
  %retval = alloca i32, align 4
  %this.addr = alloca ptr, align 8
  %era.addr = alloca i8, align 1
  %year.addr = alloca i32, align 4
  %month.addr = alloca i32, align 4
  %dom.addr = alloca i32, align 4
  %dow.addr = alloca i8, align 1
  %millis.addr = alloca i32, align 4
  %monthLength.addr = alloca i32, align 4
  %ec.addr = alloca ptr, align 8
  %date = alloca double, align 8
  %rawoff = alloca i32, align 4
  %dstoff = alloca i32, align 4
  store ptr %this, ptr %this.addr, align 8
  store i8 %era, ptr %era.addr, align 1
  store i32 %year, ptr %year.addr, align 4
  store i32 %month, ptr %month.addr, align 4
  store i32 %dom, ptr %dom.addr, align 4
  store i8 %dow, ptr %dow.addr, align 1
  store i32 %millis, ptr %millis.addr, align 4
  store i32 %monthLength, ptr %monthLength.addr, align 4
  store ptr %ec, ptr %ec.addr, align 8
  %this1 = load ptr, ptr %this.addr, align 8
  %0 = load ptr, ptr %ec.addr, align 8
  %1 = load i32, ptr %0, align 4
  %call = call noundef signext i8 @_ZL9U_FAILURE10UErrorCode(i32 noundef %1)
  %tobool = icmp ne i8 %call, 0
  br i1 %tobool, label %if.then, label %if.end

if.then:                                          ; preds = %entry
  store i32 0, ptr %retval, align 4
  br label %return

if.end:                                           ; preds = %entry
  %2 = load i8, ptr %era.addr, align 1
  %conv = zext i8 %2 to i32
  %cmp = icmp ne i32 %conv, 1
  br i1 %cmp, label %land.lhs.true, label %lor.lhs.false

land.lhs.true:                                    ; preds = %if.end
  %3 = load i8, ptr %era.addr, align 1
  %conv2 = zext i8 %3 to i32
  %cmp3 = icmp ne i32 %conv2, 0
  br i1 %cmp3, label %if.then25, label %lor.lhs.false

lor.lhs.false:                                    ; preds = %land.lhs.true, %if.end
  %4 = load i32, ptr %month.addr, align 4
  %cmp4 = icmp slt i32 %4, 0
  br i1 %cmp4, label %if.then25, label %lor.lhs.false5

lor.lhs.false5:                                   ; preds = %lor.lhs.false
  %5 = load i32, ptr %month.addr, align 4
  %cmp6 = icmp sgt i32 %5, 11
  br i1 %cmp6, label %if.then25, label %lor.lhs.false7

lor.lhs.false7:                                   ; preds = %lor.lhs.false5
  %6 = load i32, ptr %dom.addr, align 4
  %cmp8 = icmp slt i32 %6, 1
  br i1 %cmp8, label %if.then25, label %lor.lhs.false9

lor.lhs.false9:                                   ; preds = %lor.lhs.false7
  %7 = load i32, ptr %dom.addr, align 4
  %8 = load i32, ptr %monthLength.addr, align 4
  %cmp10 = icmp sgt i32 %7, %8
  br i1 %cmp10, label %if.then25, label %lor.lhs.false11

lor.lhs.false11:                                  ; preds = %lor.lhs.false9
  %9 = load i8, ptr %dow.addr, align 1
  %conv12 = zext i8 %9 to i32
  %cmp13 = icmp slt i32 %conv12, 1
  br i1 %cmp13, label %if.then25, label %lor.lhs.false14

lor.lhs.false14:                                  ; preds = %lor.lhs.false11
  %10 = load i8, ptr %dow.addr, align 1
  %conv15 = zext i8 %10 to i32
  %cmp16 = icmp sgt i32 %conv15, 7
  br i1 %cmp16, label %if.then25, label %lor.lhs.false17

lor.lhs.false17:                                  ; preds = %lor.lhs.false14
  %11 = load i32, ptr %millis.addr, align 4
  %cmp18 = icmp slt i32 %11, 0
  br i1 %cmp18, label %if.then25, label %lor.lhs.false19

lor.lhs.false19:                                  ; preds = %lor.lhs.false17
  %12 = load i32, ptr %millis.addr, align 4
  %cmp20 = icmp sge i32 %12, 86400000
  br i1 %cmp20, label %if.then25, label %lor.lhs.false21

lor.lhs.false21:                                  ; preds = %lor.lhs.false19
  %13 = load i32, ptr %monthLength.addr, align 4
  %cmp22 = icmp slt i32 %13, 28
  br i1 %cmp22, label %if.then25, label %lor.lhs.false23

lor.lhs.false23:                                  ; preds = %lor.lhs.false21
  %14 = load i32, ptr %monthLength.addr, align 4
  %cmp24 = icmp sgt i32 %14, 31
  br i1 %cmp24, label %if.then25, label %if.end26

if.then25:                                        ; preds = %lor.lhs.false23, %lor.lhs.false21, %lor.lhs.false19, %lor.lhs.false17, %lor.lhs.false14, %lor.lhs.false11, %lor.lhs.false9, %lor.lhs.false7, %lor.lhs.false5, %lor.lhs.false, %land.lhs.true
  %15 = load ptr, ptr %ec.addr, align 8
  store i32 1, ptr %15, align 4
  store i32 0, ptr %retval, align 4
  br label %return

if.end26:                                         ; preds = %lor.lhs.false23
  %16 = load i8, ptr %era.addr, align 1
  %conv27 = zext i8 %16 to i32
  %cmp28 = icmp eq i32 %conv27, 0
  br i1 %cmp28, label %if.then29, label %if.end30

if.then29:                                        ; preds = %if.end26
  %17 = load i32, ptr %year.addr, align 4
  %sub = sub nsw i32 0, %17
  store i32 %sub, ptr %year.addr, align 4
  br label %if.end30

if.end30:                                         ; preds = %if.then29, %if.end26
  %finalZone = getelementptr inbounds %"class.icu_75::OlsonTimeZone", ptr %this1, i32 0, i32 10
  %18 = load ptr, ptr %finalZone, align 8
  %cmp31 = icmp ne ptr %18, null
  br i1 %cmp31, label %land.lhs.true32, label %if.end37

land.lhs.true32:                                  ; preds = %if.end30
  %19 = load i32, ptr %year.addr, align 4
  %finalStartYear = getelementptr inbounds %"class.icu_75::OlsonTimeZone", ptr %this1, i32 0, i32 12
  %20 = load i32, ptr %finalStartYear, align 8
  %cmp33 = icmp sge i32 %19, %20
  br i1 %cmp33, label %if.then34, label %if.end37

if.then34:                                        ; preds = %land.lhs.true32
  %finalZone35 = getelementptr inbounds %"class.icu_75::OlsonTimeZone", ptr %this1, i32 0, i32 10
  %21 = load ptr, ptr %finalZone35, align 8
  %22 = load i8, ptr %era.addr, align 1
  %23 = load i32, ptr %year.addr, align 4
  %24 = load i32, ptr %month.addr, align 4
  %25 = load i32, ptr %dom.addr, align 4
  %26 = load i8, ptr %dow.addr, align 1
  %27 = load i32, ptr %millis.addr, align 4
  %28 = load i32, ptr %monthLength.addr, align 4
  %29 = load ptr, ptr %ec.addr, align 8
  %vtable = load ptr, ptr %21, align 8
  %vfn = getelementptr inbounds ptr, ptr %vtable, i64 5
  %30 = load ptr, ptr %vfn, align 8
  %call36 = call noundef i32 %30(ptr noundef nonnull align 8 dereferenceable(160) %21, i8 noundef zeroext %22, i32 noundef %23, i32 noundef %24, i32 noundef %25, i8 noundef zeroext %26, i32 noundef %27, i32 noundef %28, ptr noundef nonnull align 4 dereferenceable(4) %29)
  store i32 %call36, ptr %retval, align 4
  br label %return

if.end37:                                         ; preds = %land.lhs.true32, %if.end30
  %31 = load i32, ptr %year.addr, align 4
  %32 = load i32, ptr %month.addr, align 4
  %33 = load i32, ptr %dom.addr, align 4
  %call38 = call noundef double @_ZN6icu_755Grego11fieldsToDayEiii(i32 noundef %31, i32 noundef %32, i32 noundef %33)
  %34 = load i32, ptr %millis.addr, align 4
  %conv39 = sitofp i32 %34 to double
  %35 = call double @llvm.fmuladd.f64(double %call38, double 8.640000e+07, double %conv39)
  store double %35, ptr %date, align 8
  %36 = load double, ptr %date, align 8
  call void @_ZNK6icu_7513OlsonTimeZone19getHistoricalOffsetEdaiiRiS1_(ptr noundef nonnull align 8 dereferenceable(224) %this1, double noundef %36, i8 noundef signext 1, i32 noundef 3, i32 noundef 1, ptr noundef nonnull align 4 dereferenceable(4) %rawoff, ptr noundef nonnull align 4 dereferenceable(4) %dstoff)
  %37 = load i32, ptr %rawoff, align 4
  %38 = load i32, ptr %dstoff, align 4
  %add = add nsw i32 %37, %38
  store i32 %add, ptr %retval, align 4
  br label %return

return:                                           ; preds = %if.end37, %if.then34, %if.then25, %if.then
  %39 = load i32, ptr %retval, align 4
  ret i32 %39
}