; Function Attrs: mustprogress uwtable
define noundef i32 @_ZNK6icu_7513OlsonTimeZone9getOffsetEhiiihiiR10UErrorCode(ptr nocapture noundef nonnull readonly align 8 dereferenceable(224) %this, i8 noundef zeroext %era, i32 noundef %year, i32 noundef %month, i32 noundef %dom, i8 noundef zeroext %dow, i32 noundef %millis, i32 noundef %monthLength, ptr noundef nonnull align 4 dereferenceable(4) %ec) unnamed_addr #2 align 2 {
entry:
  %rawoff = alloca i32, align 4
  %dstoff = alloca i32, align 4
  %0 = load i32, ptr %ec, align 4
  %cmp.i = icmp slt i32 %0, 1
  br i1 %cmp.i, label %if.end, label %return

if.end:                                           ; preds = %entry
  %or.cond = icmp ugt i8 %era, 1
  %1 = icmp ugt i32 %month, 11
  %or.cond2 = or i1 %or.cond, %1
  %cmp8 = icmp slt i32 %dom, 1
  %or.cond3 = or i1 %or.cond2, %cmp8
  br i1 %or.cond3, label %if.then25, label %lor.lhs.false9

lor.lhs.false9:                                   ; preds = %if.end
  %cmp10 = icmp sgt i32 %dom, %monthLength
  %2 = add i8 %dow, -8
  %3 = icmp ult i8 %2, -7
  %or.cond5 = or i1 %3, %cmp10
  %4 = icmp ugt i32 %millis, 86399999
  %or.cond7 = or i1 %4, %or.cond5
  %5 = add i32 %monthLength, -32
  %6 = icmp ult i32 %5, -4
  %or.cond9 = or i1 %6, %or.cond7
  br i1 %or.cond9, label %if.then25, label %if.end26

if.then25:                                        ; preds = %if.end, %lor.lhs.false9
  store i32 1, ptr %ec, align 4
  br label %return

if.end26:                                         ; preds = %lor.lhs.false9
  %cmp28 = icmp eq i8 %era, 0
  %sub = sub nsw i32 0, %year
  %spec.select = select i1 %cmp28, i32 %sub, i32 %year
  %finalZone = getelementptr inbounds i8, ptr %this, i64 128
  %7 = load ptr, ptr %finalZone, align 8
  %cmp31.not = icmp eq ptr %7, null
  %finalStartYear = getelementptr inbounds i8, ptr %this, i64 144
  %8 = load i32, ptr %finalStartYear, align 8
  %cmp33.not = icmp slt i32 %spec.select, %8
  %or.cond32 = select i1 %cmp31.not, i1 true, i1 %cmp33.not
  br i1 %or.cond32, label %if.end37, label %if.then34

if.then34:                                        ; preds = %if.end26
  %vtable = load ptr, ptr %7, align 8
  %vfn = getelementptr inbounds i8, ptr %vtable, i64 40
  %9 = load ptr, ptr %vfn, align 8
  %call36 = tail call noundef i32 %9(ptr noundef nonnull align 8 dereferenceable(160) %7, i8 noundef zeroext %era, i32 noundef %spec.select, i32 noundef %month, i32 noundef %dom, i8 noundef zeroext %dow, i32 noundef %millis, i32 noundef %monthLength, ptr noundef nonnull align 4 dereferenceable(4) %ec)
  br label %return

if.end37:                                         ; preds = %if.end26
  %call38 = tail call noundef double @_ZN6icu_755Grego11fieldsToDayEiii(i32 noundef %spec.select, i32 noundef %month, i32 noundef %dom)
  %conv39 = sitofp i32 %millis to double
  %10 = tail call double @llvm.fmuladd.f64(double %call38, double 8.640000e+07, double %conv39)
  call void @_ZNK6icu_7513OlsonTimeZone19getHistoricalOffsetEdaiiRiS1_(ptr noundef nonnull align 8 dereferenceable(224) %this, double noundef %10, i8 noundef signext 1, i32 noundef 3, i32 noundef 1, ptr noundef nonnull align 4 dereferenceable(4) %rawoff, ptr noundef nonnull align 4 dereferenceable(4) %dstoff)
  %11 = load i32, ptr %rawoff, align 4
  %12 = load i32, ptr %dstoff, align 4
  %add = add nsw i32 %12, %11
  br label %return

return:                                           ; preds = %entry, %if.end37, %if.then34, %if.then25
  %retval.0 = phi i32 [ 0, %if.then25 ], [ %call36, %if.then34 ], [ %add, %if.end37 ], [ 0, %entry ]
  ret i32 %retval.0
}